; Function Attrs: mustprogress nofree norecurse nosync nounwind memory(readwrite, inaccessiblemem: none) uwtable
define void @_ZN7xgboost4data5Cache6CommitEv(ptr nocapture noundef nonnull align 8 dereferenceable(96) %0) local_unnamed_addr #3 align 2 {
  %2 = load i8, ptr %0, align 8
  %3 = trunc i8 %2 to i1
  br i1 %3, label %18, label %4

4:                                                ; preds = %1
  %5 = getelementptr inbounds i8, ptr %0, i64 72
  %6 = load ptr, ptr %5, align 8
  %7 = getelementptr inbounds i8, ptr %0, i64 80
  %8 = load ptr, ptr %7, align 8
  %9 = icmp eq ptr %6, %8
  br i1 %9, label %_ZSt11partial_sumIN9__gnu_cxx17__normal_iteratorIPmSt6vectorImSaImEEEES6_ET0_T_S8_S7_.exit, label %10

10:                                               ; preds = %4
  %11 = getelementptr inbounds i8, ptr %6, i64 8
  %.not14.i = icmp eq ptr %11, %8
  br i1 %.not14.i, label %_ZSt11partial_sumIN9__gnu_cxx17__normal_iteratorIPmSt6vectorImSaImEEEES6_ET0_T_S8_S7_.exit, label %.lr.ph.i.preheader

.lr.ph.i.preheader:                               ; preds = %10
  %12 = load i64, ptr %6, align 8
  br label %.lr.ph.i

.lr.ph.i:                                         ; preds = %.lr.ph.i.preheader, %.lr.ph.i
  %13 = phi ptr [ %17, %.lr.ph.i ], [ %11, %.lr.ph.i.preheader ]
  %.016.i = phi i64 [ %15, %.lr.ph.i ], [ %12, %.lr.ph.i.preheader ]
  %.sroa.0.015.i = phi ptr [ %16, %.lr.ph.i ], [ %6, %.lr.ph.i.preheader ]
  %14 = load i64, ptr %13, align 8
  %15 = add i64 %14, %.016.i
  %16 = getelementptr inbounds i8, ptr %.sroa.0.015.i, i64 8
  store i64 %15, ptr %16, align 8
  %17 = getelementptr inbounds i8, ptr %13, i64 8
  %.not.i = icmp eq ptr %17, %8
  br i1 %.not.i, label %_ZSt11partial_sumIN9__gnu_cxx17__normal_iteratorIPmSt6vectorImSaImEEEES6_ET0_T_S8_S7_.exit, label %.lr.ph.i, !llvm.loop !4

_ZSt11partial_sumIN9__gnu_cxx17__normal_iteratorIPmSt6vectorImSaImEEEES6_ET0_T_S8_S7_.exit: ; preds = %.lr.ph.i, %10, %4
  store i8 1, ptr %0, align 8
  br label %18

18:                                               ; preds = %_ZSt11partial_sumIN9__gnu_cxx17__normal_iteratorIPmSt6vectorImSaImEEEES6_ET0_T_S8_S7_.exit, %1
  ret void
}